target datalayout = "e-m:e-p270:32:32-p271:32:32-p272:64:64-i64:64-i128:128-f80:128-n8:16:32:64-S128"
target triple = "x86_64-pc-linux-gnu"

; Function Attrs: nounwind uwtable
define internal void @rgbaToA_c(ptr noundef %0, ptr noundef %1, ptr noundef %2, ptr noundef %3, i32 noundef %4, ptr noundef %5, ptr noundef %6) #2 {
  %8 = alloca ptr, align 8
  %9 = alloca ptr, align 8
  %10 = alloca ptr, align 8
  %11 = alloca ptr, align 8
  %12 = alloca i32, align 4
  %13 = alloca ptr, align 8
  %14 = alloca ptr, align 8
  %15 = alloca ptr, align 8
  %16 = alloca i32, align 4
  store ptr %0, ptr %8, align 8, !tbaa !34
  store ptr %1, ptr %9, align 8, !tbaa !34
  store ptr %2, ptr %10, align 8, !tbaa !34
  store ptr %3, ptr %11, align 8, !tbaa !34
  store i32 %4, ptr %12, align 4, !tbaa !30
  store ptr %5, ptr %13, align 8, !tbaa !35
  store ptr %6, ptr %14, align 8, !tbaa !31
  call void @llvm.lifetime.start.p0(i64 8, ptr %15) #9
  %17 = load ptr, ptr %8, align 8, !tbaa !34
  store ptr %17, ptr %15, align 8, !tbaa !43
  call void @llvm.lifetime.start.p0(i64 4, ptr %16) #9
  store i32 0, ptr %16, align 4, !tbaa !30
  br label %18

18:                                               ; preds = %47, %7
  %19 = load i32, ptr %16, align 4, !tbaa !30
  %20 = load i32, ptr %12, align 4, !tbaa !30
  %21 = icmp slt i32 %19, %20
  br i1 %21, label %22, label %50

22:                                               ; preds = %18
  %23 = load ptr, ptr %9, align 8, !tbaa !34
  %24 = load i32, ptr %16, align 4, !tbaa !30
  %25 = mul nsw i32 4, %24
  %26 = add nsw i32 %25, 3
  %27 = sext i32 %26 to i64
  %28 = getelementptr inbounds i8, ptr %23, i64 %27
  %29 = load i8, ptr %28, align 1, !tbaa !36
  %30 = zext i8 %29 to i32
  %31 = shl i32 %30, 6
  %32 = load ptr, ptr %9, align 8, !tbaa !34
  %33 = load i32, ptr %16, align 4, !tbaa !30
  %34 = mul nsw i32 4, %33
  %35 = add nsw i32 %34, 3
  %36 = sext i32 %35 to i64
  %37 = getelementptr inbounds i8, ptr %32, i64 %36
  %38 = load i8, ptr %37, align 1, !tbaa !36
  %39 = zext i8 %38 to i32
  %40 = ashr i32 %39, 2
  %41 = or i32 %31, %40
  %42 = trunc i32 %41 to i16
  %43 = load ptr, ptr %15, align 8, !tbaa !43
  %44 = load i32, ptr %16, align 4, !tbaa !30
  %45 = sext i32 %44 to i64
  %46 = getelementptr inbounds i16, ptr %43, i64 %45
  store i16 %42, ptr %46, align 2, !tbaa !44
  br label %47

47:                                               ; preds = %22
  %48 = load i32, ptr %16, align 4, !tbaa !30
  %49 = add nsw i32 %48, 1
  store i32 %49, ptr %16, align 4, !tbaa !30
  br label %18, !llvm.loop !117

50:                                               ; preds = %18
  call void @llvm.lifetime.end.p0(i64 4, ptr %16) #9
  call void @llvm.lifetime.end.p0(i64 8, ptr %15) #9
  ret void
}